target datalayout = "e-m:e-p270:32:32-p271:32:32-p272:64:64-i64:64-i128:128-f80:128-n8:16:32:64-S128"
target triple = "x86_64-pc-linux-gnu"

%struct.mdc2_ctx_st = type { i32, [8 x i8], [8 x i8], [8 x i8], i32 }

; Function Attrs: nounwind uwtable
define i32 @MDC2_Update(ptr noundef %0, ptr noundef %1, i64 noundef %2) #0 {
  %4 = alloca i32, align 4
  %5 = alloca ptr, align 8
  %6 = alloca ptr, align 8
  %7 = alloca i64, align 8
  %8 = alloca i64, align 8
  %9 = alloca i64, align 8
  %10 = alloca i32, align 4
  store ptr %0, ptr %5, align 8, !tbaa !3
  store ptr %1, ptr %6, align 8, !tbaa !12
  store i64 %2, ptr %7, align 8, !tbaa !14
  call void @llvm.lifetime.start.p0(i64 8, ptr %8) #5
  call void @llvm.lifetime.start.p0(i64 8, ptr %9) #5
  %11 = load ptr, ptr %5, align 8, !tbaa !3
  %12 = getelementptr inbounds nuw %struct.mdc2_ctx_st, ptr %11, i32 0, i32 0
  %13 = load i32, ptr %12, align 4, !tbaa !8
  %14 = zext i32 %13 to i64
  store i64 %14, ptr %8, align 8, !tbaa !14
  %15 = load i64, ptr %8, align 8, !tbaa !14
  %16 = icmp ne i64 %15, 0
  br i1 %16, label %17, label %57

17:                                               ; preds = %3
  %18 = load i64, ptr %7, align 8, !tbaa !14
  %19 = load i64, ptr %8, align 8, !tbaa !14
  %20 = sub i64 8, %19
  %21 = icmp ult i64 %18, %20
  br i1 %21, label %22, label %35

22:                                               ; preds = %17
  %23 = load ptr, ptr %5, align 8, !tbaa !3
  %24 = getelementptr inbounds nuw %struct.mdc2_ctx_st, ptr %23, i32 0, i32 1
  %25 = load i64, ptr %8, align 8, !tbaa !14
  %26 = getelementptr inbounds nuw [8 x i8], ptr %24, i64 0, i64 %25
  %27 = load ptr, ptr %6, align 8, !tbaa !12
  %28 = load i64, ptr %7, align 8, !tbaa !14
  call void @llvm.memcpy.p0.p0.i64(ptr align 1 %26, ptr align 1 %27, i64 %28, i1 false)
  %29 = load i64, ptr %7, align 8, !tbaa !14
  %30 = trunc i64 %29 to i32
  %31 = load ptr, ptr %5, align 8, !tbaa !3
  %32 = getelementptr inbounds nuw %struct.mdc2_ctx_st, ptr %31, i32 0, i32 0
  %33 = load i32, ptr %32, align 4, !tbaa !8
  %34 = add i32 %33, %30
  store i32 %34, ptr %32, align 4, !tbaa !8
  store i32 1, ptr %4, align 4
  store i32 1, ptr %10, align 4
  br label %85

35:                                               ; preds = %17
  %36 = load i64, ptr %8, align 8, !tbaa !14
  %37 = sub i64 8, %36
  store i64 %37, ptr %9, align 8, !tbaa !14
  %38 = load ptr, ptr %5, align 8, !tbaa !3
  %39 = getelementptr inbounds nuw %struct.mdc2_ctx_st, ptr %38, i32 0, i32 1
  %40 = load i64, ptr %8, align 8, !tbaa !14
  %41 = getelementptr inbounds nuw [8 x i8], ptr %39, i64 0, i64 %40
  %42 = load ptr, ptr %6, align 8, !tbaa !12
  %43 = load i64, ptr %9, align 8, !tbaa !14
  call void @llvm.memcpy.p0.p0.i64(ptr align 1 %41, ptr align 1 %42, i64 %43, i1 false)
  %44 = load i64, ptr %9, align 8, !tbaa !14
  %45 = load i64, ptr %7, align 8, !tbaa !14
  %46 = sub i64 %45, %44
  store i64 %46, ptr %7, align 8, !tbaa !14
  %47 = load i64, ptr %9, align 8, !tbaa !14
  %48 = load ptr, ptr %6, align 8, !tbaa !12
  %49 = getelementptr inbounds nuw i8, ptr %48, i64 %47
  store ptr %49, ptr %6, align 8, !tbaa !12
  %50 = load ptr, ptr %5, align 8, !tbaa !3
  %51 = getelementptr inbounds nuw %struct.mdc2_ctx_st, ptr %50, i32 0, i32 0
  store i32 0, ptr %51, align 4, !tbaa !8
  %52 = load ptr, ptr %5, align 8, !tbaa !3
  %53 = load ptr, ptr %5, align 8, !tbaa !3
  %54 = getelementptr inbounds nuw %struct.mdc2_ctx_st, ptr %53, i32 0, i32 1
  %55 = getelementptr inbounds [8 x i8], ptr %54, i64 0, i64 0
  call void @mdc2_body(ptr noundef %52, ptr noundef %55, i64 noundef 8)
  br label %56

56:                                               ; preds = %35
  br label %57

57:                                               ; preds = %56, %3
  %58 = load i64, ptr %7, align 8, !tbaa !14
  %59 = and i64 %58, -8
  store i64 %59, ptr %8, align 8, !tbaa !14
  %60 = load i64, ptr %8, align 8, !tbaa !14
  %61 = icmp ugt i64 %60, 0
  br i1 %61, label %62, label %66

62:                                               ; preds = %57
  %63 = load ptr, ptr %5, align 8, !tbaa !3
  %64 = load ptr, ptr %6, align 8, !tbaa !12
  %65 = load i64, ptr %8, align 8, !tbaa !14
  call void @mdc2_body(ptr noundef %63, ptr noundef %64, i64 noundef %65)
  br label %66

66:                                               ; preds = %62, %57
  %67 = load i64, ptr %7, align 8, !tbaa !14
  %68 = load i64, ptr %8, align 8, !tbaa !14
  %69 = sub i64 %67, %68
  store i64 %69, ptr %9, align 8, !tbaa !14
  %70 = load i64, ptr %9, align 8, !tbaa !14
  %71 = icmp ugt i64 %70, 0
  br i1 %71, label %72, label %84

72:                                               ; preds = %66
  %73 = load ptr, ptr %5, align 8, !tbaa !3
  %74 = getelementptr inbounds nuw %struct.mdc2_ctx_st, ptr %73, i32 0, i32 1
  %75 = getelementptr inbounds [8 x i8], ptr %74, i64 0, i64 0
  %76 = load ptr, ptr %6, align 8, !tbaa !12
  %77 = load i64, ptr %8, align 8, !tbaa !14
  %78 = getelementptr inbounds nuw i8, ptr %76, i64 %77
  %79 = load i64, ptr %9, align 8, !tbaa !14
  call void @llvm.memcpy.p0.p0.i64(ptr align 4 %75, ptr align 1 %78, i64 %79, i1 false)
  %80 = load i64, ptr %9, align 8, !tbaa !14
  %81 = trunc i64 %80 to i32
  %82 = load ptr, ptr %5, align 8, !tbaa !3
  %83 = getelementptr inbounds nuw %struct.mdc2_ctx_st, ptr %82, i32 0, i32 0
  store i32 %81, ptr %83, align 4, !tbaa !8
  br label %84

84:                                               ; preds = %72, %66
  store i32 1, ptr %4, align 4
  store i32 1, ptr %10, align 4
  br label %85

85:                                               ; preds = %84, %22
  call void @llvm.lifetime.end.p0(i64 8, ptr %9) #5
  call void @llvm.lifetime.end.p0(i64 8, ptr %8) #5
  %86 = load i32, ptr %4, align 4
  ret i32 %86
}