; Function Attrs: nounwind uwtable
define noundef i32 @MDC2_Update(ptr noundef %0, ptr noundef readonly captures(none) %1, i64 noundef %2) local_unnamed_addr #2 {
  %4 = load i32, ptr %0, align 4, !tbaa !3
  %.not = icmp eq i32 %4, 0
  br i1 %.not, label %17, label %5

5:                                                ; preds = %3
  %6 = zext i32 %4 to i64
  %7 = sub nsw i64 8, %6
  %8 = icmp ult i64 %2, %7
  %9 = getelementptr inbounds nuw i8, ptr %0, i64 4
  %10 = getelementptr inbounds nuw [8 x i8], ptr %9, i64 0, i64 %6
  br i1 %8, label %11, label %14

11:                                               ; preds = %5
  tail call void @llvm.memcpy.p0.p0.i64(ptr nonnull align 1 %10, ptr align 1 %1, i64 %2, i1 false)
  %12 = trunc i64 %2 to i32
  %13 = add i32 %4, %12
  br label %.sink.split

14:                                               ; preds = %5
  tail call void @llvm.memcpy.p0.p0.i64(ptr nonnull align 1 %10, ptr align 1 %1, i64 %7, i1 false)
  %15 = sub nuw i64 %2, %7
  %16 = getelementptr inbounds nuw i8, ptr %1, i64 %7
  store i32 0, ptr %0, align 4, !tbaa !3
  tail call fastcc void @mdc2_body(ptr noundef nonnull %0, ptr noundef nonnull %9, i64 noundef 8)
  br label %17

17:                                               ; preds = %14, %3
  %.036 = phi ptr [ %16, %14 ], [ %1, %3 ]
  %.0 = phi i64 [ %15, %14 ], [ %2, %3 ]
  %18 = and i64 %.0, -8
  %.not43 = icmp eq i64 %18, 0
  br i1 %.not43, label %20, label %19

19:                                               ; preds = %17
  tail call fastcc void @mdc2_body(ptr noundef nonnull %0, ptr noundef %.036, i64 noundef %18)
  br label %20

20:                                               ; preds = %19, %17
  %21 = and i64 %.0, 7
  %.not44 = icmp eq i64 %21, 0
  br i1 %.not44, label %26, label %22

22:                                               ; preds = %20
  %23 = getelementptr inbounds nuw i8, ptr %0, i64 4
  %24 = getelementptr inbounds nuw i8, ptr %.036, i64 %18
  tail call void @llvm.memcpy.p0.p0.i64(ptr nonnull align 4 %23, ptr align 1 %24, i64 %21, i1 false)
  %25 = trunc nuw nsw i64 %21 to i32
  br label %.sink.split

.sink.split:                                      ; preds = %11, %22
  %.sink = phi i32 [ %25, %22 ], [ %13, %11 ]
  store i32 %.sink, ptr %0, align 4, !tbaa !3
  br label %26

26:                                               ; preds = %.sink.split, %20
  ret i32 1
}